
There are no discarded input sections

Memory Configuration

Name             Origin             Length             Attributes
RAM              0x0000000080000000 0x0000000008000000 xrw
*default*        0x0000000000000000 0xffffffffffffffff

Linker script and memory map

                0x0000000000001000                STACK_SIZE = 0x1000
                0x0000000000000002                NUM_CORES = 0x2
                0x0000000080000000                RAM_BASE = 0x80000000
                0x0000000008000000                RAM_SIZE = 0x8000000
                0x0000000080000000                . = ORIGIN (RAM)

.text           0x0000000080000000     0x234a
                0x0000000080000000                _text_start = .
 *(.text.init)
 .text.init     0x0000000080000000       0x60 out/arch/riscv64/boot.o
                0x0000000080000000                _start
 *(.text.trap)
 .text.trap     0x0000000080000060      0x132 out/arch/riscv64/boot.o
                0x0000000080000060                trap_entry
 *(.text .text.*)
 .text          0x0000000080000192       0xf6 out/kernel/init.o
                0x00000000800001fa                init
 .text          0x0000000080000288      0x3b4 out/kernel/page.o
                0x00000000800002d4                page_init
                0x00000000800003f6                page_alloc
                0x000000008000058a                page_free
 .text          0x000000008000063c      0x58e out/kernel/printf.o
                0x0000000080000688                num2char
                0x0000000080000876                _vsprintf
                0x0000000080000a9c                _vprintf
                0x0000000080000b0e                printf
                0x0000000080000b7a                panic
 .text          0x0000000080000bca      0x618 out/kernel/sched.o
                0x0000000080000d84                sched_init
                0x0000000080000e7a                sched
 .text          0x00000000800011e2      0x304 out/kernel/swtimer.o
                0x00000000800012b6                swtimer_distory
                0x0000000080001374                swtimer_check
                0x00000000800013d6                swtimer_create
 .text          0x00000000800014e6       0x8e out/kernel/syscall.o
                0x0000000080001500                sys_get_hart_id
                0x0000000080001518                do_syscall
 .text          0x0000000080001574      0x29a out/kernel/task.o
                0x0000000080001630                task_init
                0x00000000800016a6                task_create
                0x00000000800017a2                task_delete
                0x00000000800017cc                task_delay
 .text          0x000000008000180e      0x2da out/arch/riscv64/qemu_virt/interrupt.o
                0x0000000080001980                global_interrupt_enable
                0x00000000800019a2                global_interrupt_disable
                0x00000000800019c2                timer_interrupt_enable
                0x00000000800019e4                timer_interrupt_disable
                0x0000000080001a06                extern_interrupt_enable
                0x0000000080001a2c                extern_interrupt_disable
                0x0000000080001a52                extern_interrupt_setting
                0x0000000080001aa6                soft_interrupt_enable
                0x0000000080001ac8                soft_interrupt_disable
 .text          0x0000000080001ae8       0xe2 out/arch/riscv64/qemu_virt/systimer.o
                0x0000000080001b30                systimer_init
                0x0000000080001b72                systimer_load
                0x0000000080001bb2                systimer_get_time
 .text          0x0000000080001bca      0x388 out/arch/riscv64/qemu_virt/trap.o
                0x0000000080001cac                trap_init
                0x0000000080001ccc                trap_handler
                0x0000000080001e84                extern_interrupt_handler
                0x0000000080001ee6                timer_interrupt_handler
                0x0000000080001f44                soft_interrupt_handler
 .text          0x0000000080001f52      0x1ac out/drivers/uart.o
                0x0000000080001f52                uart_init
                0x0000000080002014                uart_putc
                0x000000008000204a                uart_getc
                0x0000000080002078                uart_puts
                0x00000000800020b4                uart0_iqr
 *fill*         0x00000000800020fe        0x2 
 .text          0x0000000080002100      0x242 out/user/user.o
                0x0000000080002100                task0_timer
                0x0000000080002142                task0
                0x00000000800021a6                task1
                0x0000000080002234                task2
                0x0000000080002268                task3
                0x000000008000229c                os_main
 .text          0x0000000080002342        0x8 out/kernel/usys.o
                0x0000000080002342                get_hart_id
 .text          0x000000008000234a        0x0 out/arch/riscv64/boot.o
 .text          0x000000008000234a        0x0 out/arch/riscv64/save_reg.o
                0x000000008000234a                _text_end = .

.rodata         0x0000000080002350      0x4e7
                0x0000000080002350                _rodata_start = .
 *(.rodata .rodata.*)
 .rodata        0x0000000080002350       0xb9 out/kernel/page.o
 *fill*         0x0000000080002409        0x7 
 .rodata        0x0000000080002410       0x90 out/kernel/printf.o
 .rodata        0x00000000800024a0       0x14 out/kernel/sched.o
 *fill*         0x00000000800024b4        0x4 
 .rodata        0x00000000800024b8       0x1c out/kernel/syscall.o
 *fill*         0x00000000800024d4        0x4 
 .rodata        0x00000000800024d8      0x22d out/arch/riscv64/qemu_virt/trap.o
 *fill*         0x0000000080002705        0x3 
 .rodata        0x0000000080002708        0xa out/drivers/uart.o
 *fill*         0x0000000080002712        0x6 
 .rodata        0x0000000080002718      0x11f out/user/user.o
                0x0000000080002837                _rodata_end = .

.rela.dyn       0x0000000080002838        0x0
 .rela.text     0x0000000080002838        0x0 out/kernel/init.o
 .rela.text.init
                0x0000000080002838        0x0 out/kernel/init.o
 .rela.text.trap
                0x0000000080002838        0x0 out/kernel/init.o

.data           0x0000000080002838        0x0
                0x0000000080002838                _data_start = .
 *(.data .data,*)
 .data          0x0000000080002838        0x0 out/kernel/init.o
 .data          0x0000000080002838        0x0 out/kernel/page.o
 .data          0x0000000080002838        0x0 out/kernel/printf.o
 .data          0x0000000080002838        0x0 out/kernel/sched.o
 .data          0x0000000080002838        0x0 out/kernel/swtimer.o
 .data          0x0000000080002838        0x0 out/kernel/syscall.o
 .data          0x0000000080002838        0x0 out/kernel/task.o
 .data          0x0000000080002838        0x0 out/arch/riscv64/qemu_virt/interrupt.o
 .data          0x0000000080002838        0x0 out/arch/riscv64/qemu_virt/systimer.o
 .data          0x0000000080002838        0x0 out/arch/riscv64/qemu_virt/trap.o
 .data          0x0000000080002838        0x0 out/drivers/uart.o
 .data          0x0000000080002838        0x0 out/user/user.o
 .data          0x0000000080002838        0x0 out/kernel/usys.o
 .data          0x0000000080002838        0x0 out/arch/riscv64/boot.o
 .data          0x0000000080002838        0x0 out/arch/riscv64/save_reg.o
                0x0000000080002838                _data_end = .

.sdata          0x0000000080002838       0x14
 .sdata         0x0000000080002838        0x8 out/kernel/syscall.o
 .sdata         0x0000000080002840        0x8 out/kernel/task.o
 .sdata         0x0000000080002848        0x4 out/arch/riscv64/qemu_virt/systimer.o
                0x0000000080002848                systimer_hz

.bss            0x0000000080002850      0x490
                0x0000000080002850                . = ALIGN (0x8)
                0x0000000080002850                _bss_start = .
 *(.bss .bss.*)
 .bss           0x0000000080002850        0x0 out/kernel/init.o
 .bss           0x0000000080002850       0x18 out/kernel/page.o
 .bss           0x0000000080002868      0x400 out/kernel/printf.o
 .bss           0x0000000080002c68       0x50 out/kernel/sched.o
                0x0000000080002c68                scheduler
 .bss           0x0000000080002cb8        0x8 out/kernel/swtimer.o
 .bss           0x0000000080002cc0        0x0 out/kernel/syscall.o
 .bss           0x0000000080002cc0       0x20 out/kernel/task.o
                0x0000000080002cc0                need_add_task
 .bss           0x0000000080002ce0        0x0 out/arch/riscv64/qemu_virt/interrupt.o
 .bss           0x0000000080002ce0        0x0 out/arch/riscv64/qemu_virt/systimer.o
 .bss           0x0000000080002ce0        0x0 out/arch/riscv64/qemu_virt/trap.o
 .bss           0x0000000080002ce0        0x0 out/drivers/uart.o
 .bss           0x0000000080002ce0        0x0 out/user/user.o
 .bss           0x0000000080002ce0        0x0 out/kernel/usys.o
 .bss           0x0000000080002ce0        0x0 out/arch/riscv64/boot.o
 .bss           0x0000000080002ce0        0x0 out/arch/riscv64/save_reg.o
 *(COMMON)
                0x0000000080002ce0                . = ALIGN (0x8)
                0x0000000080002ce0                _bss_end = .

.sbss           0x0000000080002ce0       0x48
 .sbss          0x0000000080002ce0        0x1 out/kernel/init.o
                0x0000000080002ce0                is_init
 *fill*         0x0000000080002ce1        0x7 
 .sbss          0x0000000080002ce8        0x4 out/kernel/page.o
                0x0000000080002ce8                page_lock
 *fill*         0x0000000080002cec        0x4 
 .sbss          0x0000000080002cf0        0x4 out/kernel/printf.o
                0x0000000080002cf0                printf_lock
 *fill*         0x0000000080002cf4        0x4 
 .sbss          0x0000000080002cf8        0x8 out/kernel/swtimer.o
                0x0000000080002cf8                swtimer_head
 .sbss          0x0000000080002d00        0x4 out/kernel/task.o
                0x0000000080002d00                task_create_lock
 *fill*         0x0000000080002d04        0x4 
 .sbss          0x0000000080002d08        0x8 out/arch/riscv64/qemu_virt/systimer.o
                0x0000000080002d08                systimer_tick
 .sbss          0x0000000080002d10       0x18 out/user/user.o
                0x0000000080002d10                task0_handle
                0x0000000080002d18                task1_handle
                0x0000000080002d20                t

.kernel_reg_ctx
                0x0000000080002d28      0x210
                0x0000000080002d28                . = ALIGN (0x8)
                0x0000000080002d28                _kernel_reg_ctx_start = .
                0x0000000080002f38                . = (. + (0x108 * NUM_CORES))
 *fill*         0x0000000080002d28      0x210 
                0x0000000080002f38                _kernel_reg_ctx_end = .
                0x0000000080003000                . = ALIGN (0x1000)
                0x0000000080003000                _heap_start = .
                0x0000000088000000                _stack_end = (RAM_BASE + RAM_SIZE)
                0x0000000087ffe000                _stack_start = (_stack_end - (STACK_SIZE * NUM_CORES))
                0x0000000087ffe000                _heap_end = _stack_start
                0x0000000007ffb000                _heap_size = (_heap_end - _heap_start)
LOAD out/kernel/init.o
LOAD out/kernel/page.o
LOAD out/kernel/printf.o
LOAD out/kernel/sched.o
LOAD out/kernel/swtimer.o
LOAD out/kernel/syscall.o
LOAD out/kernel/task.o
LOAD out/arch/riscv64/qemu_virt/interrupt.o
LOAD out/arch/riscv64/qemu_virt/systimer.o
LOAD out/arch/riscv64/qemu_virt/trap.o
LOAD out/drivers/uart.o
LOAD out/user/user.o
LOAD out/kernel/usys.o
LOAD out/arch/riscv64/boot.o
LOAD out/arch/riscv64/save_reg.o
OUTPUT(out/ZZZ-OS.elf elf64-littleriscv)

.debug_info     0x0000000000000000     0x3332
 .debug_info    0x0000000000000000      0x274 out/kernel/init.o
 .debug_info    0x0000000000000274      0x311 out/kernel/page.o
 .debug_info    0x0000000000000585      0x43f out/kernel/printf.o
 .debug_info    0x00000000000009c4      0x8d1 out/kernel/sched.o
 .debug_info    0x0000000000001295      0x3d2 out/kernel/swtimer.o
 .debug_info    0x0000000000001667      0x2fc out/kernel/syscall.o
 .debug_info    0x0000000000001963      0x67e out/kernel/task.o
 .debug_info    0x0000000000001fe1      0x357 out/arch/riscv64/qemu_virt/interrupt.o
 .debug_info    0x0000000000002338      0x22e out/arch/riscv64/qemu_virt/systimer.o
 .debug_info    0x0000000000002566      0x5d4 out/arch/riscv64/qemu_virt/trap.o
 .debug_info    0x0000000000002b3a      0x1dd out/drivers/uart.o
 .debug_info    0x0000000000002d17      0x5d0 out/user/user.o
 .debug_info    0x00000000000032e7       0x28 out/kernel/usys.o
 .debug_info    0x000000000000330f       0x23 out/arch/riscv64/boot.o

.debug_abbrev   0x0000000000000000     0x1540
 .debug_abbrev  0x0000000000000000      0x150 out/kernel/init.o
 .debug_abbrev  0x0000000000000150      0x1b1 out/kernel/page.o
 .debug_abbrev  0x0000000000000301      0x1b0 out/kernel/printf.o
 .debug_abbrev  0x00000000000004b1      0x2ab out/kernel/sched.o
 .debug_abbrev  0x000000000000075c      0x1c8 out/kernel/swtimer.o
 .debug_abbrev  0x0000000000000924      0x14d out/kernel/syscall.o
 .debug_abbrev  0x0000000000000a71      0x250 out/kernel/task.o
 .debug_abbrev  0x0000000000000cc1      0x130 out/arch/riscv64/qemu_virt/interrupt.o
 .debug_abbrev  0x0000000000000df1      0x149 out/arch/riscv64/qemu_virt/systimer.o
 .debug_abbrev  0x0000000000000f3a      0x26d out/arch/riscv64/qemu_virt/trap.o
 .debug_abbrev  0x00000000000011a7      0x147 out/drivers/uart.o
 .debug_abbrev  0x00000000000012ee      0x22c out/user/user.o
 .debug_abbrev  0x000000000000151a       0x14 out/kernel/usys.o
 .debug_abbrev  0x000000000000152e       0x12 out/arch/riscv64/boot.o

.debug_aranges  0x0000000000000000      0x2b0
 .debug_aranges
                0x0000000000000000       0x30 out/kernel/init.o
 .debug_aranges
                0x0000000000000030       0x30 out/kernel/page.o
 .debug_aranges
                0x0000000000000060       0x30 out/kernel/printf.o
 .debug_aranges
                0x0000000000000090       0x30 out/kernel/sched.o
 .debug_aranges
                0x00000000000000c0       0x30 out/kernel/swtimer.o
 .debug_aranges
                0x00000000000000f0       0x30 out/kernel/syscall.o
 .debug_aranges
                0x0000000000000120       0x30 out/kernel/task.o
 .debug_aranges
                0x0000000000000150       0x30 out/arch/riscv64/qemu_virt/interrupt.o
 .debug_aranges
                0x0000000000000180       0x30 out/arch/riscv64/qemu_virt/systimer.o
 .debug_aranges
                0x00000000000001b0       0x30 out/arch/riscv64/qemu_virt/trap.o
 .debug_aranges
                0x00000000000001e0       0x30 out/drivers/uart.o
 .debug_aranges
                0x0000000000000210       0x30 out/user/user.o
 .debug_aranges
                0x0000000000000240       0x30 out/kernel/usys.o
 .debug_aranges
                0x0000000000000270       0x40 out/arch/riscv64/boot.o

.debug_line     0x0000000000000000     0x2174
 .debug_line    0x0000000000000000      0x178 out/kernel/init.o
 .debug_line    0x0000000000000178      0x3c6 out/kernel/page.o
 .debug_line    0x000000000000053e      0x524 out/kernel/printf.o
 .debug_line    0x0000000000000a62      0x3fc out/kernel/sched.o
 .debug_line    0x0000000000000e5e      0x308 out/kernel/swtimer.o
 .debug_line    0x0000000000001166       0xe9 out/kernel/syscall.o
 .debug_line    0x000000000000124f      0x296 out/kernel/task.o
 .debug_line    0x00000000000014e5      0x2a7 out/arch/riscv64/qemu_virt/interrupt.o
 .debug_line    0x000000000000178c      0x105 out/arch/riscv64/qemu_virt/systimer.o
 .debug_line    0x0000000000001891      0x364 out/arch/riscv64/qemu_virt/trap.o
 .debug_line    0x0000000000001bf5      0x1fd out/drivers/uart.o
 .debug_line    0x0000000000001df2      0x202 out/user/user.o
 .debug_line    0x0000000000001ff4       0x5a out/kernel/usys.o
 .debug_line    0x000000000000204e      0x126 out/arch/riscv64/boot.o

.debug_str      0x0000000000000000      0x9f7
 .debug_str     0x0000000000000000      0x9f7 out/kernel/init.o
                                        0x21a (size before relaxing)
 .debug_str     0x00000000000009f7      0x1dd out/kernel/page.o
 .debug_str     0x00000000000009f7      0x1d5 out/kernel/printf.o
 .debug_str     0x00000000000009f7      0x3de out/kernel/sched.o
 .debug_str     0x00000000000009f7      0x24c out/kernel/swtimer.o
 .debug_str     0x00000000000009f7      0x157 out/kernel/syscall.o
 .debug_str     0x00000000000009f7      0x313 out/kernel/task.o
 .debug_str     0x00000000000009f7      0x29a out/arch/riscv64/qemu_virt/interrupt.o
 .debug_str     0x00000000000009f7      0x1e5 out/arch/riscv64/qemu_virt/systimer.o
 .debug_str     0x00000000000009f7      0x2b1 out/arch/riscv64/qemu_virt/trap.o
 .debug_str     0x00000000000009f7      0x14c out/drivers/uart.o
 .debug_str     0x00000000000009f7      0x2cc out/user/user.o
 .debug_str     0x00000000000009f7       0x2b out/kernel/usys.o
 .debug_str     0x00000000000009f7       0x31 out/arch/riscv64/boot.o

.debug_line_str
                0x0000000000000000      0x209
 .debug_line_str
                0x0000000000000000      0x209 out/kernel/init.o
                                         0xcb (size before relaxing)
 .debug_line_str
                0x0000000000000209       0x7e out/kernel/page.o
 .debug_line_str
                0x0000000000000209       0xb7 out/kernel/printf.o
 .debug_line_str
                0x0000000000000209       0xbd out/kernel/sched.o
 .debug_line_str
                0x0000000000000209       0x95 out/kernel/swtimer.o
 .debug_line_str
                0x0000000000000209       0x78 out/kernel/syscall.o
 .debug_line_str
                0x0000000000000209       0xa8 out/kernel/task.o
 .debug_line_str
                0x0000000000000209       0xa7 out/arch/riscv64/qemu_virt/interrupt.o
 .debug_line_str
                0x0000000000000209       0xa7 out/arch/riscv64/qemu_virt/systimer.o
 .debug_line_str
                0x0000000000000209       0xca out/arch/riscv64/qemu_virt/trap.o
 .debug_line_str
                0x0000000000000209       0x6a out/drivers/uart.o
 .debug_line_str
                0x0000000000000209       0xa2 out/user/user.o
 .debug_line_str
                0x0000000000000209       0x1f out/kernel/usys.o
 .debug_line_str
                0x0000000000000209       0x25 out/arch/riscv64/boot.o

.comment        0x0000000000000000       0x22
 .comment       0x0000000000000000       0x22 out/kernel/init.o
                                         0x23 (size before relaxing)
 .comment       0x0000000000000022       0x23 out/kernel/page.o
 .comment       0x0000000000000022       0x23 out/kernel/printf.o
 .comment       0x0000000000000022       0x23 out/kernel/sched.o
 .comment       0x0000000000000022       0x23 out/kernel/swtimer.o
 .comment       0x0000000000000022       0x23 out/kernel/syscall.o
 .comment       0x0000000000000022       0x23 out/kernel/task.o
 .comment       0x0000000000000022       0x23 out/arch/riscv64/qemu_virt/interrupt.o
 .comment       0x0000000000000022       0x23 out/arch/riscv64/qemu_virt/systimer.o
 .comment       0x0000000000000022       0x23 out/arch/riscv64/qemu_virt/trap.o
 .comment       0x0000000000000022       0x23 out/drivers/uart.o
 .comment       0x0000000000000022       0x23 out/user/user.o

.riscv.attributes
                0x0000000000000000       0x57
 .riscv.attributes
                0x0000000000000000       0x57 out/kernel/init.o
 .riscv.attributes
                0x0000000000000057       0x53 out/kernel/page.o
 .riscv.attributes
                0x00000000000000aa       0x53 out/kernel/printf.o
 .riscv.attributes
                0x00000000000000fd       0x57 out/kernel/sched.o
 .riscv.attributes
                0x0000000000000154       0x53 out/kernel/swtimer.o
 .riscv.attributes
                0x00000000000001a7       0x57 out/kernel/syscall.o
 .riscv.attributes
                0x00000000000001fe       0x53 out/kernel/task.o
 .riscv.attributes
                0x0000000000000251       0x57 out/arch/riscv64/qemu_virt/interrupt.o
 .riscv.attributes
                0x00000000000002a8       0x53 out/arch/riscv64/qemu_virt/systimer.o
 .riscv.attributes
                0x00000000000002fb       0x57 out/arch/riscv64/qemu_virt/trap.o
 .riscv.attributes
                0x0000000000000352       0x53 out/drivers/uart.o
 .riscv.attributes
                0x00000000000003a5       0x53 out/user/user.o
 .riscv.attributes
                0x00000000000003f8       0x51 out/kernel/usys.o
 .riscv.attributes
                0x0000000000000449       0x55 out/arch/riscv64/boot.o
 .riscv.attributes
                0x000000000000049e       0x51 out/arch/riscv64/save_reg.o

.debug_frame    0x0000000000000000     0x1238
 .debug_frame   0x0000000000000000      0x100 out/kernel/init.o
 .debug_frame   0x0000000000000100      0x100 out/kernel/page.o
 .debug_frame   0x0000000000000200      0x158 out/kernel/printf.o
 .debug_frame   0x0000000000000358      0x2e0 out/kernel/sched.o
 .debug_frame   0x0000000000000638      0x190 out/kernel/swtimer.o
 .debug_frame   0x00000000000007c8       0xa0 out/kernel/syscall.o
 .debug_frame   0x0000000000000868      0x190 out/kernel/task.o
 .debug_frame   0x00000000000009f8      0x310 out/arch/riscv64/qemu_virt/interrupt.o
 .debug_frame   0x0000000000000d08      0x100 out/arch/riscv64/qemu_virt/systimer.o
 .debug_frame   0x0000000000000e08      0x228 out/arch/riscv64/qemu_virt/trap.o
 .debug_frame   0x0000000000001030      0x100 out/drivers/uart.o
 .debug_frame   0x0000000000001130      0x108 out/user/user.o

.debug_rnglists
                0x0000000000000000       0x22
 .debug_rnglists
                0x0000000000000000       0x22 out/arch/riscv64/boot.o
